; ModuleID = '63/556.c'
source_filename = "63/556.c"
target datalayout = "e-m:e-p270:32:32-p271:32:32-p272:64:64-i64:64-f80:128-n8:16:32:64-S128"
target triple = "x86_64-pc-linux-gnu"

@.str = private unnamed_addr constant [3 x i8] c"%d\00", align 1
@.str.1 = private unnamed_addr constant [5 x i8] c" %d\0A\00", align 1
@.str.2 = private unnamed_addr constant [4 x i8] c"%d\0A\00", align 1
@.str.3 = private unnamed_addr constant [4 x i8] c" %d\00", align 1

; Function Attrs: noinline nounwind uwtable
define dso_local i32 @main() #0 {
  %1 = alloca i32, align 4
  %2 = alloca [100 x [100 x i32]], align 16
  %3 = alloca [100 x [100 x i32]], align 16
  %4 = alloca [100 x [100 x i32]], align 16
  %5 = alloca i32, align 4
  %6 = alloca i32, align 4
  %7 = alloca i32, align 4
  %8 = alloca i32, align 4
  %9 = alloca i32, align 4
  %10 = alloca i32, align 4
  %11 = alloca i32, align 4
  %12 = alloca i32, align 4
  store i32 0, i32* %1, align 4
  %13 = bitcast [100 x [100 x i32]]* %4 to i8*
  call void @llvm.memset.p0i8.i64(i8* align 16 %13, i8 0, i64 40000, i1 false)
  %14 = call i32 (i8*, ...) @__isoc99_scanf(i8* getelementptr inbounds ([3 x i8], [3 x i8]* @.str, i64 0, i64 0), i32* %5)
  %15 = call i32 (i8*, ...) @__isoc99_scanf(i8* getelementptr inbounds ([3 x i8], [3 x i8]* @.str, i64 0, i64 0), i32* %7)
  store i32 0, i32* %9, align 4
  br label %16

16:                                               ; preds = %37, %0
  %17 = load i32, i32* %9, align 4
  %18 = load i32, i32* %5, align 4
  %19 = icmp slt i32 %17, %18
  br i1 %19, label %20, label %40

20:                                               ; preds = %16
  store i32 0, i32* %10, align 4
  br label %21

21:                                               ; preds = %33, %20
  %22 = load i32, i32* %10, align 4
  %23 = load i32, i32* %7, align 4
  %24 = icmp slt i32 %22, %23
  br i1 %24, label %25, label %36

25:                                               ; preds = %21
  %26 = load i32, i32* %9, align 4
  %27 = sext i32 %26 to i64
  %28 = getelementptr inbounds [100 x [100 x i32]], [100 x [100 x i32]]* %2, i64 0, i64 %27
  %29 = load i32, i32* %10, align 4
  %30 = sext i32 %29 to i64
  %31 = getelementptr inbounds [100 x i32], [100 x i32]* %28, i64 0, i64 %30
  %32 = call i32 (i8*, ...) @__isoc99_scanf(i8* getelementptr inbounds ([3 x i8], [3 x i8]* @.str, i64 0, i64 0), i32* %31)
  br label %33

33:                                               ; preds = %25
  %34 = load i32, i32* %10, align 4
  %35 = add nsw i32 %34, 1
  store i32 %35, i32* %10, align 4
  br label %21

36:                                               ; preds = %21
  br label %37

37:                                               ; preds = %36
  %38 = load i32, i32* %9, align 4
  %39 = add nsw i32 %38, 1
  store i32 %39, i32* %9, align 4
  br label %16

40:                                               ; preds = %16
  %41 = call i32 (i8*, ...) @__isoc99_scanf(i8* getelementptr inbounds ([3 x i8], [3 x i8]* @.str, i64 0, i64 0), i32* %6)
  %42 = call i32 (i8*, ...) @__isoc99_scanf(i8* getelementptr inbounds ([3 x i8], [3 x i8]* @.str, i64 0, i64 0), i32* %8)
  store i32 0, i32* %9, align 4
  br label %43

43:                                               ; preds = %64, %40
  %44 = load i32, i32* %9, align 4
  %45 = load i32, i32* %6, align 4
  %46 = icmp slt i32 %44, %45
  br i1 %46, label %47, label %67

47:                                               ; preds = %43
  store i32 0, i32* %10, align 4
  br label %48

48:                                               ; preds = %60, %47
  %49 = load i32, i32* %10, align 4
  %50 = load i32, i32* %8, align 4
  %51 = icmp slt i32 %49, %50
  br i1 %51, label %52, label %63

52:                                               ; preds = %48
  %53 = load i32, i32* %9, align 4
  %54 = sext i32 %53 to i64
  %55 = getelementptr inbounds [100 x [100 x i32]], [100 x [100 x i32]]* %3, i64 0, i64 %54
  %56 = load i32, i32* %10, align 4
  %57 = sext i32 %56 to i64
  %58 = getelementptr inbounds [100 x i32], [100 x i32]* %55, i64 0, i64 %57
  %59 = call i32 (i8*, ...) @__isoc99_scanf(i8* getelementptr inbounds ([3 x i8], [3 x i8]* @.str, i64 0, i64 0), i32* %58)
  br label %60

60:                                               ; preds = %52
  %61 = load i32, i32* %10, align 4
  %62 = add nsw i32 %61, 1
  store i32 %62, i32* %10, align 4
  br label %48

63:                                               ; preds = %48
  br label %64

64:                                               ; preds = %63
  %65 = load i32, i32* %9, align 4
  %66 = add nsw i32 %65, 1
  store i32 %66, i32* %9, align 4
  br label %43

67:                                               ; preds = %43
  store i32 0, i32* %9, align 4
  br label %68

68:                                               ; preds = %114, %67
  %69 = load i32, i32* %9, align 4
  %70 = load i32, i32* %5, align 4
  %71 = icmp slt i32 %69, %70
  br i1 %71, label %72, label %117

72:                                               ; preds = %68
  store i32 0, i32* %10, align 4
  br label %73

73:                                               ; preds = %110, %72
  %74 = load i32, i32* %10, align 4
  %75 = load i32, i32* %8, align 4
  %76 = icmp slt i32 %74, %75
  br i1 %76, label %77, label %113

77:                                               ; preds = %73
  store i32 0, i32* %11, align 4
  br label %78

78:                                               ; preds = %106, %77
  %79 = load i32, i32* %11, align 4
  %80 = load i32, i32* %6, align 4
  %81 = icmp slt i32 %79, %80
  br i1 %81, label %82, label %109

82:                                               ; preds = %78
  %83 = load i32, i32* %9, align 4
  %84 = sext i32 %83 to i64
  %85 = getelementptr inbounds [100 x [100 x i32]], [100 x [100 x i32]]* %2, i64 0, i64 %84
  %86 = load i32, i32* %11, align 4
  %87 = sext i32 %86 to i64
  %88 = getelementptr inbounds [100 x i32], [100 x i32]* %85, i64 0, i64 %87
  %89 = load i32, i32* %88, align 4
  %90 = load i32, i32* %11, align 4
  %91 = sext i32 %90 to i64
  %92 = getelementptr inbounds [100 x [100 x i32]], [100 x [100 x i32]]* %3, i64 0, i64 %91
  %93 = load i32, i32* %10, align 4
  %94 = sext i32 %93 to i64
  %95 = getelementptr inbounds [100 x i32], [100 x i32]* %92, i64 0, i64 %94
  %96 = load i32, i32* %95, align 4
  %97 = mul nsw i32 %89, %96
  %98 = load i32, i32* %9, align 4
  %99 = sext i32 %98 to i64
  %100 = getelementptr inbounds [100 x [100 x i32]], [100 x [100 x i32]]* %4, i64 0, i64 %99
  %101 = load i32, i32* %10, align 4
  %102 = sext i32 %101 to i64
  %103 = getelementptr inbounds [100 x i32], [100 x i32]* %100, i64 0, i64 %102
  %104 = load i32, i32* %103, align 4
  %105 = add nsw i32 %104, %97
  store i32 %105, i32* %103, align 4
  br label %106

106:                                              ; preds = %82
  %107 = load i32, i32* %11, align 4
  %108 = add nsw i32 %107, 1
  store i32 %108, i32* %11, align 4
  br label %78

109:                                              ; preds = %78
  br label %110

110:                                              ; preds = %109
  %111 = load i32, i32* %10, align 4
  %112 = add nsw i32 %111, 1
  store i32 %112, i32* %10, align 4
  br label %73

113:                                              ; preds = %73
  br label %114

114:                                              ; preds = %113
  %115 = load i32, i32* %9, align 4
  %116 = add nsw i32 %115, 1
  store i32 %116, i32* %9, align 4
  br label %68

117:                                              ; preds = %68
  store i32 0, i32* %9, align 4
  br label %118

118:                                              ; preds = %194, %117
  %119 = load i32, i32* %9, align 4
  %120 = load i32, i32* %5, align 4
  %121 = icmp slt i32 %119, %120
  br i1 %121, label %122, label %197

122:                                              ; preds = %118
  store i32 0, i32* %10, align 4
  br label %123

123:                                              ; preds = %190, %122
  %124 = load i32, i32* %10, align 4
  %125 = load i32, i32* %8, align 4
  %126 = icmp slt i32 %124, %125
  br i1 %126, label %127, label %193

127:                                              ; preds = %123
  %128 = load i32, i32* %10, align 4
  %129 = icmp eq i32 %128, 0
  br i1 %129, label %130, label %144

130:                                              ; preds = %127
  %131 = load i32, i32* %10, align 4
  %132 = load i32, i32* %8, align 4
  %133 = sub nsw i32 %132, 1
  %134 = icmp ne i32 %131, %133
  br i1 %134, label %135, label %144

135:                                              ; preds = %130
  %136 = load i32, i32* %9, align 4
  %137 = sext i32 %136 to i64
  %138 = getelementptr inbounds [100 x [100 x i32]], [100 x [100 x i32]]* %4, i64 0, i64 %137
  %139 = load i32, i32* %10, align 4
  %140 = sext i32 %139 to i64
  %141 = getelementptr inbounds [100 x i32], [100 x i32]* %138, i64 0, i64 %140
  %142 = load i32, i32* %141, align 4
  %143 = call i32 (i8*, ...) @printf(i8* getelementptr inbounds ([3 x i8], [3 x i8]* @.str, i64 0, i64 0), i32 %142)
  br label %189

144:                                              ; preds = %130, %127
  %145 = load i32, i32* %10, align 4
  %146 = icmp ne i32 %145, 0
  br i1 %146, label %147, label %161

147:                                              ; preds = %144
  %148 = load i32, i32* %10, align 4
  %149 = load i32, i32* %8, align 4
  %150 = sub nsw i32 %149, 1
  %151 = icmp eq i32 %148, %150
  br i1 %151, label %152, label %161

152:                                              ; preds = %147
  %153 = load i32, i32* %9, align 4
  %154 = sext i32 %153 to i64
  %155 = getelementptr inbounds [100 x [100 x i32]], [100 x [100 x i32]]* %4, i64 0, i64 %154
  %156 = load i32, i32* %10, align 4
  %157 = sext i32 %156 to i64
  %158 = getelementptr inbounds [100 x i32], [100 x i32]* %155, i64 0, i64 %157
  %159 = load i32, i32* %158, align 4
  %160 = call i32 (i8*, ...) @printf(i8* getelementptr inbounds ([5 x i8], [5 x i8]* @.str.1, i64 0, i64 0), i32 %159)
  br label %188

161:                                              ; preds = %147, %144
  %162 = load i32, i32* %10, align 4
  %163 = icmp eq i32 %162, 0
  br i1 %163, label %164, label %178

164:                                              ; preds = %161
  %165 = load i32, i32* %10, align 4
  %166 = load i32, i32* %8, align 4
  %167 = sub nsw i32 %166, 1
  %168 = icmp eq i32 %165, %167
  br i1 %168, label %169, label %178

169:                                              ; preds = %164
  %170 = load i32, i32* %9, align 4
  %171 = sext i32 %170 to i64
  %172 = getelementptr inbounds [100 x [100 x i32]], [100 x [100 x i32]]* %4, i64 0, i64 %171
  %173 = load i32, i32* %10, align 4
  %174 = sext i32 %173 to i64
  %175 = getelementptr inbounds [100 x i32], [100 x i32]* %172, i64 0, i64 %174
  %176 = load i32, i32* %175, align 4
  %177 = call i32 (i8*, ...) @printf(i8* getelementptr inbounds ([4 x i8], [4 x i8]* @.str.2, i64 0, i64 0), i32 %176)
  br label %187

178:                                              ; preds = %164, %161
  %179 = load i32, i32* %9, align 4
  %180 = sext i32 %179 to i64
  %181 = getelementptr inbounds [100 x [100 x i32]], [100 x [100 x i32]]* %4, i64 0, i64 %180
  %182 = load i32, i32* %10, align 4
  %183 = sext i32 %182 to i64
  %184 = getelementptr inbounds [100 x i32], [100 x i32]* %181, i64 0, i64 %183
  %185 = load i32, i32* %184, align 4
  %186 = call i32 (i8*, ...) @printf(i8* getelementptr inbounds ([4 x i8], [4 x i8]* @.str.3, i64 0, i64 0), i32 %185)
  br label %187

187:                                              ; preds = %178, %169
  br label %188

188:                                              ; preds = %187, %152
  br label %189

189:                                              ; preds = %188, %135
  br label %190

190:                                              ; preds = %189
  %191 = load i32, i32* %10, align 4
  %192 = add nsw i32 %191, 1
  store i32 %192, i32* %10, align 4
  br label %123

193:                                              ; preds = %123
  br label %194

194:                                              ; preds = %193
  %195 = load i32, i32* %9, align 4
  %196 = add nsw i32 %195, 1
  store i32 %196, i32* %9, align 4
  br label %118

197:                                              ; preds = %118
  %198 = call i32 @getchar()
  %199 = call i32 @getchar()
  %200 = load i32, i32* %1, align 4
  ret i32 %200
}

; Function Attrs: argmemonly nounwind willreturn
declare void @llvm.memset.p0i8.i64(i8* nocapture writeonly, i8, i64, i1 immarg) #1

declare dso_local i32 @__isoc99_scanf(i8*, ...) #2

declare dso_local i32 @printf(i8*, ...) #2

declare dso_local i32 @getchar() #2


!llvm.module.flags = !{!0}
!llvm.ident = !{!1}

!0 = !{i32 1, !"wchar_size", i32 4}
!1 = !{!"clang version 10.0.0-4ubuntu1 "}
